; Function Attrs: nounwind uwtable
define internal void @t1_cmap_unicode_done(ptr noundef captures(none) initializes((24, 28)) %0) #0 {
  %2 = load ptr, ptr %0, align 8
  %3 = getelementptr inbounds nuw i8, ptr %2, i64 184
  %4 = load ptr, ptr %3, align 8
  %5 = getelementptr inbounds nuw i8, ptr %0, i64 32
  %6 = load ptr, ptr %5, align 8
  tail call void @ft_mem_free(ptr noundef %4, ptr noundef %6) #20
  store ptr null, ptr %5, align 8
  %7 = getelementptr inbounds nuw i8, ptr %0, i64 24
  store i32 0, ptr %7, align 8
  ret void
}